target datalayout = "e-m:e-p270:32:32-p271:32:32-p272:64:64-i64:64-i128:128-f80:128-n8:16:32:64-S128"
target triple = "x86_64-pc-linux-gnu"

%class.defined_names = type { ptr, ptr }

@_ZN13defined_names4implC1ER11ast_managerPKc = hidden unnamed_addr alias void (ptr, ptr, ptr), ptr @_ZN13defined_names4implC2ER11ast_managerPKc

; Function Attrs: mustprogress uwtable
define linkonce_odr hidden void @_ZN13defined_names8pos_implC2ER11ast_managerPKc(ptr noundef nonnull align 8 dereferenceable(128) %0, ptr noundef nonnull align 8 dereferenceable(976) %1, ptr noundef %2) unnamed_addr #4 comdat align 2 {
  %4 = alloca ptr, align 8
  %5 = alloca ptr, align 8
  %6 = alloca ptr, align 8
  store ptr %0, ptr %4, align 8, !tbaa !231
  store ptr %1, ptr %5, align 8, !tbaa !8
  store ptr %2, ptr %6, align 8, !tbaa !10
  %7 = load ptr, ptr %4, align 8
  %8 = load ptr, ptr %5, align 8, !tbaa !8
  %9 = load ptr, ptr %6, align 8, !tbaa !10
  call void @_ZN13defined_names4implC2ER11ast_managerPKc(ptr noundef nonnull align 8 dereferenceable(128) %7, ptr noundef nonnull align 8 dereferenceable(976) %8, ptr noundef %9)
  store ptr getelementptr inbounds inrange(-16, 24) ({ [5 x ptr] }, ptr @_ZTVN13defined_names8pos_implE, i32 0, i32 0, i32 2), ptr %7, align 8, !tbaa !12
  ret void
}

; Function Attrs: mustprogress uwtable
define hidden void @_ZN13defined_namesC2ER11ast_managerPKc(ptr noundef nonnull align 8 dereferenceable(16) %0, ptr noundef nonnull align 8 dereferenceable(976) %1, ptr noundef %2) unnamed_addr #4 align 2 {
  %4 = alloca ptr, align 8
  %5 = alloca ptr, align 8
  %6 = alloca ptr, align 8
  store ptr %0, ptr %4, align 8, !tbaa !245
  store ptr %1, ptr %5, align 8, !tbaa !8
  store ptr %2, ptr %6, align 8, !tbaa !10
  %7 = load ptr, ptr %4, align 8
  %8 = call noalias noundef ptr @_ZN6memory8allocateEm(i64 noundef 128)
  %9 = load ptr, ptr %5, align 8, !tbaa !8
  %10 = load ptr, ptr %6, align 8, !tbaa !10
  call void @_ZN13defined_names4implC1ER11ast_managerPKc(ptr noundef nonnull align 8 dereferenceable(128) %8, ptr noundef nonnull align 8 dereferenceable(976) %9, ptr noundef %10)
  %11 = getelementptr inbounds nuw %class.defined_names, ptr %7, i32 0, i32 0
  store ptr %8, ptr %11, align 8, !tbaa !247
  %12 = call noalias noundef ptr @_ZN6memory8allocateEm(i64 noundef 128)
  %13 = load ptr, ptr %5, align 8, !tbaa !8
  %14 = load ptr, ptr %6, align 8, !tbaa !10
  call void @_ZN13defined_names8pos_implC2ER11ast_managerPKc(ptr noundef nonnull align 8 dereferenceable(128) %12, ptr noundef nonnull align 8 dereferenceable(976) %13, ptr noundef %14)
  %15 = getelementptr inbounds nuw %class.defined_names, ptr %7, i32 0, i32 1
  store ptr %12, ptr %15, align 8, !tbaa !249
  ret void
}