; Function Attrs: mustprogress uwtable
define hidden void @_ZN13defined_namesC2ER11ast_managerPKc(ptr noundef nonnull writeonly align 8 captures(none) dereferenceable(16) initializes((0, 16)) %0, ptr noundef nonnull align 8 dereferenceable(976) %1, ptr noundef %2) unnamed_addr #3 align 2 {
  %4 = tail call noalias noundef ptr @_ZN6memory8allocateEm(i64 noundef 128)
  tail call void @_ZN13defined_names4implC2ER11ast_managerPKc(ptr noundef nonnull align 8 dereferenceable(128) %4, ptr noundef nonnull align 8 dereferenceable(976) %1, ptr noundef %2)
  store ptr %4, ptr %0, align 8, !tbaa !225
  %5 = tail call noalias noundef ptr @_ZN6memory8allocateEm(i64 noundef 128)
  tail call void @_ZN13defined_names4implC2ER11ast_managerPKc(ptr noundef nonnull align 8 dereferenceable(128) %5, ptr noundef nonnull align 8 dereferenceable(976) %1, ptr noundef %2)
  store ptr getelementptr inbounds nuw inrange(-16, 24) (i8, ptr @_ZTVN13defined_names8pos_implE, i64 16), ptr %5, align 8, !tbaa !3
  %6 = getelementptr inbounds nuw i8, ptr %0, i64 8
  store ptr %5, ptr %6, align 8, !tbaa !229
  ret void
}